; Function Attrs: nounwind uwtable
define dso_local zeroext i1 @CheckRelationOidLockedByMe(i32 noundef %0, i32 noundef %1, i1 noundef zeroext %2) local_unnamed_addr #1 {
  %4 = alloca %struct.LOCKTAG, align 4
  call void @llvm.lifetime.start.p0(i64 16, ptr nonnull %4) #8
  %5 = tail call zeroext i1 @IsSharedRelation(i32 noundef %0) #8
  %6 = load i32, ptr @MyDatabaseId, align 4
  %.0.i = select i1 %5, i32 0, i32 %6
  store i32 %.0.i, ptr %4, align 4
  %7 = getelementptr inbounds nuw i8, ptr %4, i64 4
  store i32 %0, ptr %7, align 4
  %8 = getelementptr inbounds nuw i8, ptr %4, i64 8
  store i32 0, ptr %8, align 4
  %9 = getelementptr inbounds nuw i8, ptr %4, i64 12
  store i16 0, ptr %9, align 4
  %10 = getelementptr inbounds nuw i8, ptr %4, i64 14
  store i8 0, ptr %10, align 2
  %11 = getelementptr inbounds nuw i8, ptr %4, i64 15
  store i8 1, ptr %11, align 1
  %12 = call zeroext i1 @LockHeldByMe(ptr noundef nonnull %4, i32 noundef %1, i1 noundef zeroext %2) #8
  call void @llvm.lifetime.end.p0(i64 16, ptr nonnull %4) #8
  ret i1 %12
}